target datalayout = "e-m:e-p270:32:32-p271:32:32-p272:64:64-i64:64-i128:128-f80:128-n8:16:32:64-S128"
target triple = "x86_64-pc-linux-gnu"

%struct.mempool_s = type { i64, i64, i64, i64, i8, ptr, ptr, ptr, ptr, %struct.sq_queue_s, %struct.sq_queue_s, %struct.sq_queue_s, i64, i8, %struct.sem_s, %struct.mempool_procfs_entry_s }
%struct.sq_queue_s = type { ptr, ptr }
%struct.sem_s = type { i16, i8, %struct.dq_queue_s, ptr }
%struct.dq_queue_s = type { ptr, ptr }
%struct.mempool_procfs_entry_s = type { ptr, ptr }
%struct.sq_entry_s = type { ptr }
%struct.malltask = type { i32 }

@.str = private unnamed_addr constant [10 x i8] c"%12zu%*p\0A\00", align 1

; Function Attrs: nounwind uwtable
define void @mempool_memdump(ptr noundef %0, ptr noundef %1) #0 {
  %3 = alloca ptr, align 8
  %4 = alloca ptr, align 8
  %5 = alloca i64, align 8
  %6 = alloca ptr, align 8
  store ptr %0, ptr %3, align 8
  store ptr %1, ptr %4, align 8
  %7 = load ptr, ptr %3, align 8
  %8 = getelementptr inbounds %struct.mempool_s, ptr %7, i32 0, i32 0
  %9 = load i64, ptr %8, align 8
  store i64 %9, ptr %5, align 8
  %10 = load ptr, ptr %4, align 8
  %11 = getelementptr inbounds %struct.malltask, ptr %10, i32 0, i32 0
  %12 = load i32, ptr %11, align 4
  %13 = icmp eq i32 %12, -4
  br i1 %13, label %14, label %45

14:                                               ; preds = %2
  %15 = load ptr, ptr %3, align 8
  %16 = getelementptr inbounds %struct.mempool_s, ptr %15, i32 0, i32 9
  %17 = getelementptr inbounds %struct.sq_queue_s, ptr %16, i32 0, i32 0
  %18 = load ptr, ptr %17, align 8
  store ptr %18, ptr %6, align 8
  br label %19

19:                                               ; preds = %25, %14
  %20 = load ptr, ptr %6, align 8
  %21 = icmp ne ptr %20, null
  br i1 %21, label %22, label %29

22:                                               ; preds = %19
  %23 = load i64, ptr %5, align 8
  %24 = load ptr, ptr %6, align 8
  call void (i32, ptr, ...) @syslog(i32 noundef 6, ptr noundef @.str, i64 noundef %23, i32 noundef 19, ptr noundef %24)
  br label %25

25:                                               ; preds = %22
  %26 = load ptr, ptr %6, align 8
  %27 = getelementptr inbounds %struct.sq_entry_s, ptr %26, i32 0, i32 0
  %28 = load ptr, ptr %27, align 8
  store ptr %28, ptr %6, align 8
  br label %19, !llvm.loop !9

29:                                               ; preds = %19
  %30 = load ptr, ptr %3, align 8
  %31 = getelementptr inbounds %struct.mempool_s, ptr %30, i32 0, i32 10
  %32 = getelementptr inbounds %struct.sq_queue_s, ptr %31, i32 0, i32 0
  %33 = load ptr, ptr %32, align 8
  store ptr %33, ptr %6, align 8
  br label %34

34:                                               ; preds = %40, %29
  %35 = load ptr, ptr %6, align 8
  %36 = icmp ne ptr %35, null
  br i1 %36, label %37, label %44

37:                                               ; preds = %34
  %38 = load i64, ptr %5, align 8
  %39 = load ptr, ptr %6, align 8
  call void (i32, ptr, ...) @syslog(i32 noundef 6, ptr noundef @.str, i64 noundef %38, i32 noundef 19, ptr noundef %39)
  br label %40

40:                                               ; preds = %37
  %41 = load ptr, ptr %6, align 8
  %42 = getelementptr inbounds %struct.sq_entry_s, ptr %41, i32 0, i32 0
  %43 = load ptr, ptr %42, align 8
  store ptr %43, ptr %6, align 8
  br label %34, !llvm.loop !10

44:                                               ; preds = %34
  br label %45

45:                                               ; preds = %44, %2
  ret void
}