; Function Attrs: nounwind uwtable
define void @mempool_memdump(ptr noundef readonly captures(none) %0, ptr noundef readonly captures(none) %1) local_unnamed_addr #0 {
  %3 = load i64, ptr %0, align 8
  %4 = load i32, ptr %1, align 4
  %5 = icmp eq i32 %4, -4
  br i1 %5, label %6, label %.loopexit

6:                                                ; preds = %2
  %7 = getelementptr inbounds nuw i8, ptr %0, i64 72
  %.012 = load ptr, ptr %7, align 8
  %.not13 = icmp eq ptr %.012, null
  br i1 %.not13, label %._crit_edge, label %.lr.ph

.lr.ph:                                           ; preds = %6, %.lr.ph
  %.014 = phi ptr [ %.0, %.lr.ph ], [ %.012, %6 ]
  tail call void (i32, ptr, ...) @syslog(i32 noundef 6, ptr noundef nonnull @.str, i64 noundef %3, i32 noundef 19, ptr noundef nonnull %.014) #4
  %.0 = load ptr, ptr %.014, align 8
  %.not = icmp eq ptr %.0, null
  br i1 %.not, label %._crit_edge, label %.lr.ph, !llvm.loop !12

._crit_edge:                                      ; preds = %.lr.ph, %6
  %8 = getelementptr inbounds nuw i8, ptr %0, i64 88
  %.115 = load ptr, ptr %8, align 8
  %.not1116 = icmp eq ptr %.115, null
  br i1 %.not1116, label %.loopexit, label %.lr.ph19

.lr.ph19:                                         ; preds = %._crit_edge, %.lr.ph19
  %.117 = phi ptr [ %.1, %.lr.ph19 ], [ %.115, %._crit_edge ]
  tail call void (i32, ptr, ...) @syslog(i32 noundef 6, ptr noundef nonnull @.str, i64 noundef %3, i32 noundef 19, ptr noundef nonnull %.117) #4
  %.1 = load ptr, ptr %.117, align 8
  %.not11 = icmp eq ptr %.1, null
  br i1 %.not11, label %.loopexit, label %.lr.ph19, !llvm.loop !13

.loopexit:                                        ; preds = %.lr.ph19, %._crit_edge, %2
  ret void
}